(dp1
S''
(dp2
S''
F0
sS'0.0!@#Eighth@tied@to@32nd@(0.63@total@QL)'
p3
F0.012048192771084338
sS'REST!@#Half@tied@to@Eighth@(2.5@total@QL)'
p4
F0.012048192771084338
sS'0.0!@#Dotted@Eighth'
p5
F0.012048192771084338
sS'REST!@#Dotted@Quarter'
p6
F0.012048192771084338
sS'0.0!@#Quadruple@Dotted@Half@(3.88QL)'
p7
F0.012048192771084338
sS'0.0!@#Dotted@16th'
p8
F0.012048192771084338
sS'0.0!@#Whole'
p9
F0.024096385542168676
sS'0.0!@#16th'
p10
F0.25301204819277107
sS'REST!@#Eighth'
p11
F0.024096385542168676
sS'0.0!@#Eighth'
p12
F0.61445783132530118
sS'REST!@#Quarter'
p13
F0.012048192771084338
ssS'-4.0!@#Eighth@tied@to@32nd@(0.63@total@QL)'
p14
(dp15
S'REST!@#32nd'
p16
F1
ssS'4.0!@#16th'
p17
(dp18
S''
F0.058823529411764705
sS'REST!@#Eighth'
p19
F0.58823529411764708
sS'2.0!@#Double@Dotted@Eighth'
p20
F0.058823529411764705
sS'REST!@#16th'
p21
F0.29411764705882354
ssS'-7.0!@#Quarter'
p22
(dp23
S'!@#Quarter'
p24
F0.25
sS''
F0.125
sS'REST!@#Eighth'
p25
F0.625
ssS'-2.0!@#Quarter'
p26
(dp27
S'-4.0!@#32nd'
p28
F1
ssS'5.0!@#16th'
p29
(dp30
S'REST!@#Eighth'
p31
F0.23999999999999999
sS'4.0!@#16th'
p32
F0.02
sS'REST!@#16th'
p33
F0.73999999999999999
ssS'2.0!@#16th'
p34
(dp35
S''
F0.026666666666666668
sS'REST!@#Dotted@Eighth'
p36
F0.026666666666666668
sS'REST!@#16th'
p37
F0.7466666666666667
sS'REST!@#Eighth'
p38
F0.17333333333333334
sS'4.0!@#16th'
p39
F0.013333333333333334
sS'REST!@#Quarter'
p40
F0.013333333333333334
ssS'REST!@#32nd'
p41
(dp42
S'-2.0!@#Eighth@tied@to@32nd@(0.63@total@QL)'
p43
F0.080000000000000002
sS'-6.0!@#Eighth'
p44
F0.040000000000000001
sS'-3.0!@#Double@Dotted@Eighth'
p45
F0.02
sS'-4.0!@#Eighth'
p46
F0.040000000000000001
sg14
F0.080000000000000002
sS'-5.0!@#Quarter'
p47
F0.02
sS'-2.0!@#Dotted@16th'
p48
F0.059999999999999998
sS'7.0!@#Dotted@16th'
p49
F0.040000000000000001
sS'!@#Dotted@16th'
p50
F0.29999999999999999
sS'3.0!@#Dotted@16th'
p51
F0.02
sS'0.0!@#Dotted@16th'
p52
F0.02
sS'0.0!@#Quarter@tied@to@Dotted@16th@(1.38@total@QL)'
p53
F0.040000000000000001
sS'-1.0!@#16th'
p54
F0.040000000000000001
sS'3.0!@#Eighth@tied@to@32nd@(0.63@total@QL)'
p55
F0.040000000000000001
sS'0.0!@#Eighth@tied@to@32nd@(0.63@total@QL)'
p56
F0.080000000000000002
sS'-5.0!@#Eighth'
p57
F0.02
sS'0.0!@#Quarter'
p58
F0.02
sS'!@#Eighth@tied@to@32nd@(0.63@total@QL)'
p59
F0.02
sS'-5.0!@#Dotted@16th'
p60
F0.02
ssg53
(dp61
S'REST!@#Eighth@tied@to@32nd@(0.63@total@QL)'
p62
F0.5
sS''
F0.5
ssS'-4.0!@#Half@tied@to@Eighth@(2.5@total@QL)'
p63
(dp64
S''
F0.5
sS'-4.0!@#Eighth'
p65
F0.5
ssg59
(dp66
S'REST!@#32nd'
p67
F1
ssS'-4.0!@#16th'
p68
(dp69
S'REST!@#Eighth'
p70
F0.33333333333333331
sS'REST!@#16th'
p71
F0.66666666666666663
ssS'4.0!@#Eighth'
p72
(dp73
S'5.0!@#Eighth'
p74
F0.097560975609756101
sS'!@#Eighth'
p75
F0.14634146341463414
sS'REST!@#16th'
p76
F0.097560975609756101
sS'REST!@#Eighth'
p77
F0.34146341463414637
sS'0.0!@#Eighth'
p78
F0.17073170731707318
sS'7.0!@#Eighth'
p79
F0.024390243902439025
sS'7.0!@#16th'
p80
F0.04878048780487805
sS'4.0!@#Eighth'
p81
F0.073170731707317069
ssS'-3.0!@#Dotted@Quarter'
p82
(dp83
S'REST!@#Quarter'
p84
F1
ssg28
(dp85
S'-7.0!@#Quarter'
p86
F1
ssg55
(dp87
S'REST!@#32nd'
p88
F1
ssS'-7.0!@#Breve'
p89
(dp90
S'!@#Eighth'
p91
F1
ssS'-5.0!@#16th'
p92
(dp93
S''
F0.088235294117647065
sS'5.0!@#16th'
p94
F0.088235294117647065
sS'-5.0!@#16th'
p95
F0.088235294117647065
sS'2.0!@#16th'
p96
F0.029411764705882353
sS'REST!@#16th'
p97
F0.5
sS'REST!@#Eighth'
p98
F0.11764705882352941
sS'0.0!@#Eighth'
p99
F0.058823529411764705
sS'2.0!@#Eighth'
p100
F0.029411764705882353
ssS'REST!@#Dotted@16th'
p101
(dp102
S'-4.0!@#Eighth'
p103
F1
ssS'1.0!@#Quarter@tied@to@32nd@(1.13@total@QL)'
p104
(dp105
S'-1.0!@#Eighth'
p106
F1
ssS'!@#Dotted@Eighth'
p107
(dp108
S'!@#Dotted@Eighth'
p109
F0.33333333333333331
sS'-7.0!@#Dotted@Eighth'
p110
F0.16666666666666666
sS'-5.0!@#Dotted@Eighth'
p111
F0.16666666666666666
sS'REST!@#16th'
p112
F0.33333333333333331
ssS'5.0!@#Eighth'
p113
(dp114
S''
F0.0085470085470085479
sS'4.0!@#16th'
p115
F0.0085470085470085479
sS'3.0!@#Eighth'
p116
F0.13675213675213677
sS'-4.0!@#Eighth'
p117
F0.042735042735042736
sS'5.0!@#Eighth'
p118
F0.17948717948717949
sS'-2.0!@#Eighth'
p119
F0.0085470085470085479
sS'7.0!@#Quarter'
p120
F0.017094017094017096
sS'!@#Eighth'
p121
F0.05128205128205128
sS'REST!@#16th'
p122
F0.29059829059829062
sS'7.0!@#Eighth'
p123
F0.068376068376068383
sS'0.0!@#Eighth'
p124
F0.059829059829059832
sS'-5.0!@#Eighth'
p125
F0.0085470085470085479
sS'2.0!@#Eighth'
p126
F0.076923076923076927
sS'4.0!@#Eighth'
p127
F0.042735042735042736
ssg6
(dp128
S'0.0!@#Eighth@tied@to@32nd@(0.63@total@QL)'
p129
F1
ssS'4.0!@#Quarter'
p130
(dp131
S'5.0!@#Dotted@Half'
p132
F1
ssg12
(dp133
S''
F0.021377672209026127
sS'3.0!@#Eighth'
p134
F0.023752969121140142
sg113
F0.033254156769596199
sS'-7.0!@#Dotted@Quarter'
p135
F0.0047505938242280287
sS'!@#Eighth'
p136
F0.12114014251781473
sg130
F0.0047505938242280287
sS'0.0!@#Eighth'
p137
F0.18052256532066507
sS'-5.0!@#Eighth'
p138
F0.0047505938242280287
sS'REST!@#Quarter'
p139
F0.0047505938242280287
sg63
F0.0047505938242280287
sg34
F0.0095011876484560574
sS'0.0!@#16th'
p140
F0.0071258907363420431
sS'-1.0!@#16th'
p141
F0.0023752969121140144
sS'7.0!@#Eighth'
p142
F0.035629453681710214
sS'4.0!@#Eighth'
p143
F0.011876484560570071
sS'-4.0!@#Eighth'
p144
F0.019002375296912115
sS'-2.0!@#Eighth'
p145
F0.035629453681710214
sS'REST!@#Eighth'
p146
F0.061757719714964368
sS'2.0!@#Eighth'
p147
F0.073634204275534437
sS'-1.0!@#Eighth'
p148
F0.028503562945368172
sS'5.0!@#Dotted@Eighth'
p149
F0.0047505938242280287
sS'REST!@#16th'
p150
F0.29216152019002373
sS'3.0!@#16th'
p151
F0.0095011876484560574
sS'-3.0!@#Eighth'
p152
F0.0047505938242280287
ssS'4.0!@#Dotted@Eighth'
p153
(dp154
S'0.0!@#Eighth'
p155
F1
ssg43
(dp156
S'REST!@#32nd'
p157
F1
ssg48
(dp158
S'REST!@#Eighth@tied@to@32nd@(0.63@total@QL)'
p159
F0.33333333333333331
sS'REST!@#32nd'
p160
F0.66666666666666663
ssg45
(dp161
S'REST!@#32nd'
p162
F1
ssS'REST!@#Quarter'
p163
(dp164
S'3.0!@#16th'
p165
F0.1111111111111111
sS'0.0!@#Eighth'
p166
F0.33333333333333331
sS'0.0!@#Dotted@Eighth'
p167
F0.1111111111111111
sS'0.0!@#Quarter'
p168
F0.1111111111111111
sS'0.0!@#16th'
p169
F0.33333333333333331
ssg10
(dp170
S''
F0.017006802721088437
sS'!@#Eighth'
p171
F0.0034013605442176869
sS'REST!@#Dotted@Eighth'
p172
F0.020408163265306121
sS'5.0!@#16th'
p173
F0.013605442176870748
sS'-2.0!@#16th'
p174
F0.023809523809523808
sS'2.0!@#16th'
p175
F0.030612244897959183
sS'REST!@#16th'
p176
F0.48979591836734693
sS'0.0!@#16th'
p177
F0.054421768707482991
sS'REST!@#Eighth'
p178
F0.32993197278911562
sS'0.0!@#Eighth'
p179
F0.0034013605442176869
sS'3.0!@#16th'
p180
F0.0034013605442176869
sg163
F0.01020408163265306
ssg54
(dp181
S'REST!@#Eighth'
p182
F0.59999999999999998
sS'REST!@#16th'
p183
F0.40000000000000002
ssg123
(dp184
S''
F0.061538461538461542
sS'5.0!@#Eighth'
p185
F0.12307692307692308
sS'2.0!@#Eighth'
p186
F0.092307692307692313
sS'!@#Eighth'
p187
F0.23076923076923078
sS'7.0!@#16th'
p188
F0.015384615384615385
sS'REST!@#16th'
p189
F0.2153846153846154
sS'REST!@#Eighth'
p190
F0.092307692307692313
sS'0.0!@#Eighth'
p191
F0.015384615384615385
sS'7.0!@#Eighth'
p192
F0.030769230769230771
sS'-3.0!@#Eighth'
p193
F0.030769230769230771
sS'4.0!@#Eighth'
p194
F0.092307692307692313
ssS'-4.0!@#Eighth'
p195
(dp196
S'-6.0!@#Eighth'
p197
F0.035714285714285712
sS'3.0!@#Eighth'
p198
F0.071428571428571425
sS'-4.0!@#Eighth'
p199
F0.23214285714285715
sS'5.0!@#Eighth'
p200
F0.14285714285714285
sS'-2.0!@#Eighth'
p201
F0.053571428571428568
sS'-5.0!@#Quarter'
p202
F0.035714285714285712
sS'!@#Eighth'
p203
F0.017857142857142856
sg104
F0.071428571428571425
sS'REST!@#16th'
p204
F0.125
sS'-7.0!@#Eighth'
p205
F0.017857142857142856
sS'0.0!@#Eighth'
p206
F0.071428571428571425
sS'-5.0!@#Eighth'
p207
F0.053571428571428568
sS'REST!@#Eighth'
p208
F0.071428571428571425
ssg5
(dp209
S'-1.0!@#Dotted@Eighth'
p210
F0.5
sS'4.0!@#16th'
p211
F0.5
ssS'-4.0!@#Double@Dotted@Eighth'
p212
(dp213
g41
F1
ssS'-1.0!@#Eighth'
p214
(dp215
S''
F0.090909090909090912
sS'-2.0!@#Eighth'
p216
F0.12121212121212122
sS'REST!@#Dotted@Eighth'
p217
F0.060606060606060608
sS'!@#Eighth'
p218
F0.15151515151515152
sS'REST!@#16th'
p219
F0.12121212121212122
sS'REST!@#Eighth'
p220
F0.060606060606060608
sS'0.0!@#Eighth'
p221
F0.24242424242424243
sS'2.0!@#Eighth'
p222
F0.060606060606060608
sS'-3.0!@#Eighth'
p223
F0.060606060606060608
sS'4.0!@#Eighth'
p224
F0.030303030303030304
ssS'!@#Half@tied@to@16th@(2.25@total@QL)'
p225
(dp226
S''
F1
ssg120
(dp227
S'5.0!@#Dotted@Whole'
p228
F0.5
sS'0.0!@#Dotted@Half'
p229
F0.5
ssg8
(dp230
S'REST!@#Eighth@tied@to@32nd@(0.63@total@QL)'
p231
F0.33333333333333331
sS'REST!@#32nd'
p232
F0.66666666666666663
ssS'-7.0!@#16th'
p233
(dp234
S''
F0.20000000000000001
sS'REST!@#Eighth'
p235
F0.20000000000000001
sS'REST!@#16th'
p236
F0.59999999999999998
ssg110
(dp237
S'!@#Dotted@Eighth'
p238
F0.5
sS'REST!@#16th'
p239
F0.5
ssS'1.0!@#Eighth'
p240
(dp241
S'0.0!@#Eighth'
p242
F0.5
sS'REST!@#16th'
p243
F0.5
ssS'3.0!@#Eighth'
p244
(dp245
S''
F0.028571428571428571
sg240
F0.028571428571428571
sS'3.0!@#Eighth'
p246
F0.12380952380952381
sS'-4.0!@#Eighth'
p247
F0.028571428571428571
sS'5.0!@#Eighth'
p248
F0.085714285714285715
sS'-2.0!@#Eighth'
p249
F0.0095238095238095247
sS'!@#Eighth'
p250
F0.066666666666666666
sS'REST!@#16th'
p251
F0.25714285714285712
sS'0.0!@#16th'
p252
F0.0095238095238095247
sS'REST!@#Eighth'
p253
F0.038095238095238099
sS'0.0!@#Eighth'
p254
F0.15238095238095239
sS'-5.0!@#Eighth'
p255
F0.038095238095238099
sS'2.0!@#Eighth'
p256
F0.13333333333333333
ssg172
(dp257
S'!@#16th'
p258
F0.14285714285714285
sS'!@#Eighth'
p259
F0.21428571428571427
sS'0.0!@#Eighth'
p260
F0.071428571428571425
sS'-3.0!@#Eighth'
p261
F0.14285714285714285
sS'0.0!@#16th'
p262
F0.42857142857142855
ssS'!@#Eighth'
p263
(dp264
S''
F0.030023094688221709
sS'!@#Dotted@Eighth'
p265
F0.0023094688221709007
sS'3.0!@#Eighth'
p266
F0.018475750577367205
sS'!@#Whole'
p267
F0.0069284064665127024
sS'5.0!@#Eighth'
p268
F0.011547344110854504
sS'REST!@#Dotted@Eighth'
p269
F0.0092378752886836026
sS'!@#Eighth'
p270
F0.44341801385681295
sS'0.0!@#Eighth'
p271
F0.11316397228637413
sS'-5.0!@#Eighth'
p272
F0.0023094688221709007
sS'-7.0!@#Eighth'
p273
F0.0092378752886836026
sS'!@#16th'
p274
F0.020785219399538105
sS'-2.0!@#Whole'
p275
F0.0023094688221709007
sS'7.0!@#Eighth'
p276
F0.03695150115473441
sS'4.0!@#Eighth'
p277
F0.016166281755196306
sS'-4.0!@#Eighth'
p278
F0.011547344110854504
sS'-2.0!@#Eighth'
p279
F0.0069284064665127024
sS'REST!@#Eighth'
p280
F0.050808314087759814
sS'2.0!@#Eighth'
p281
F0.025404157043879907
sS'-1.0!@#Eighth'
p282
F0.0092378752886836026
sg89
F0.0023094688221709007
sg225
F0.0023094688221709007
sS'REST!@#16th'
p283
F0.15935334872979215
sS'-3.0!@#Eighth'
p284
F0.0092378752886836026
ssg138
(dp285
g82
F0.021276595744680851
sS'5.0!@#Eighth'
p286
F0.021276595744680851
sS'-2.0!@#Eighth'
p287
F0.063829787234042548
sS'!@#Eighth'
p288
F0.063829787234042548
sS'REST!@#16th'
p289
F0.44680851063829785
sS'-7.0!@#Eighth'
p290
F0.063829787234042548
sS'0.0!@#Eighth'
p291
F0.10638297872340426
sS'-5.0!@#Eighth'
p292
F0.1276595744680851
sS'REST!@#Eighth'
p293
F0.021276595744680851
sS'-3.0!@#Eighth'
p294
F0.063829787234042548
ssS'-3.0!@#Quarter'
p295
(dp296
S'-5.0!@#Double@Dotted@Eighth'
p297
F0.33333333333333331
sg26
F0.66666666666666663
ssg80
(dp298
S'5.0!@#16th'
p299
F0.052631578947368418
sS'REST!@#Eighth'
p300
F0.31578947368421051
sS'7.0!@#16th'
p301
F0.10526315789473684
sS'REST!@#16th'
p302
F0.52631578947368418
ssg228
(dp303
S''
F1
ssg147
(dp304
S''
F0.044444444444444446
sS'-1.0!@#Eighth'
p305
F0.014814814814814815
sS'3.0!@#Eighth'
p306
F0.1037037037037037
sS'5.0!@#Eighth'
p307
F0.029629629629629631
sS'2.0!@#Eighth'
p308
F0.059259259259259262
sS'!@#Eighth'
p309
F0.096296296296296297
sS'REST!@#16th'
p310
F0.22962962962962963
sS'REST!@#Eighth'
p311
F0.12592592592592591
sS'0.0!@#Eighth'
p312
F0.21481481481481482
sS'-7.0!@#Eighth'
p313
F0.0074074074074074077
sS'-3.0!@#Eighth'
p314
F0.029629629629629631
sg72
F0.044444444444444446
ssg129
(dp315
S'REST!@#32nd'
p316
F0.7142857142857143
sg101
F0.2857142857142857
ssg4
(dp317
S'0.0!@#Eighth'
p318
F1
ssS'-2.0!@#Eighth'
p319
(dp320
S''
F0.07792207792207792
sS'-7.0!@#Eighth'
p321
F0.012987012987012988
sS'3.0!@#Eighth'
p322
F0.03896103896103896
sg195
F0.064935064935064929
sS'-2.0!@#Eighth'
p323
F0.19480519480519481
sS'!@#Eighth'
p324
F0.03896103896103896
sS'REST!@#16th'
p325
F0.29870129870129869
sS'REST!@#Eighth'
p326
F0.051948051948051951
sS'0.0!@#Eighth'
p327
F0.11688311688311688
sS'-5.0!@#Eighth'
p328
F0.03896103896103896
sg212
F0.051948051948051951
sS'-3.0!@#Eighth'
p329
F0.012987012987012988
ssS'-7.0!@#Dotted@16th'
p330
(dp331
S'REST!@#32nd'
p332
F1
ssg135
(dp333
S'0.0!@#Eighth'
p334
F0.5
sS'-3.0!@#Eighth'
p335
F0.5
ssg20
(dp336
S'REST!@#32nd'
p337
F1
ssS'-3.0!@#16th'
p338
(dp339
S'REST!@#16th'
p340
F1
ssg9
(dp341
S'!@#Eighth'
p342
F1
ssg37
(dp343
S'!@#Dotted@Eighth'
p344
F0.00130718954248366
sS'1.0!@#Eighth'
p345
F0.0039215686274509803
sg244
F0.043137254901960784
sS'5.0!@#Eighth'
p346
F0.049673202614379082
sg263
F0.10326797385620914
sg17
F0.0039215686274509803
sS'-5.0!@#Eighth'
p347
F0.026143790849673203
sg338
F0.0078431372549019607
sS'7.0!@#16th'
p348
F0.011764705882352941
sS'!@#16th'
p349
F0.022222222222222223
sS'0.0!@#Eighth'
p350
F0.13464052287581699
sg29
F0.032679738562091505
sS'2.0!@#16th'
p351
F0.057516339869281043
sS'0.0!@#16th'
p352
F0.18954248366013071
sS'7.0!@#Eighth'
p353
F0.022222222222222223
sS'-4.0!@#16th'
p354
F0.0052287581699346402
sS'4.0!@#Eighth'
p355
F0.0039215686274509803
sS'-4.0!@#Eighth'
p356
F0.0091503267973856214
sS'-2.0!@#Eighth'
p357
F0.030065359477124184
sS'-7.0!@#Eighth'
p358
F0.0091503267973856214
sS'2.0!@#Eighth'
p359
F0.043137254901960784
sg214
F0.013071895424836602
sS'-2.0!@#16th'
p360
F0.056209150326797387
sS'-5.0!@#16th'
p361
F0.032679738562091505
sg233
F0.0039215686274509803
sS'-1.0!@#Dotted@Eighth'
p362
F0.00130718954248366
sS'3.0!@#16th'
p363
F0.079738562091503262
sS'-3.0!@#Eighth'
p364
F0.0026143790849673201
ssS'7.0!@#Dotted@Eighth'
p365
(dp366
S'5.0!@#Eighth'
p367
F0.5
sS'7.0!@#Dotted@Eighth'
p368
F0.5
ssg202
(dp369
S'!@#Eighth'
p370
F1
ssg31
(dp371
S'3.0!@#Eighth'
p372
F0.013245033112582781
sS'5.0!@#Eighth'
p373
F0.0099337748344370865
sS'!@#Eighth'
p374
F0.079470198675496692
sS'4.0!@#16th'
p375
F0.033112582781456956
sS'-5.0!@#Eighth'
p376
F0.0066225165562913907
sS'-7.0!@#Eighth'
p377
F0.023178807947019868
sS'7.0!@#16th'
p378
F0.016556291390728478
sS'!@#16th'
p379
F0.033112582781456956
sS'0.0!@#Eighth'
p380
F0.11920529801324503
sS'2.0!@#Eighth'
p381
F0.059602649006622516
sS'5.0!@#16th'
p382
F0.056291390728476824
sS'2.0!@#16th'
p383
F0.043046357615894038
sS'0.0!@#16th'
p384
F0.29470198675496689
sS'-1.0!@#16th'
p385
F0.0066225165562913907
sS'7.0!@#Eighth'
p386
F0.019867549668874173
sg68
F0.0066225165562913907
sS'4.0!@#Eighth'
p387
F0.016556291390728478
sS'-4.0!@#Eighth'
p388
F0.0066225165562913907
sg319
F0.023178807947019868
sg295
F0.0066225165562913907
sS'0.0!@#Quarter'
p389
F0.0099337748344370865
sS'1.0!@#Eighth@tied@to@32nd@(0.63@total@QL)'
p390
F0.0066225165562913907
sS'-2.0!@#16th'
p391
F0.033112582781456956
sg92
F0.019867549668874173
sS'-7.0!@#16th'
p392
F0.0066225165562913907
sS'3.0!@#16th'
p393
F0.046357615894039736
sS'-3.0!@#Eighth'
p394
F0.0033112582781456954
ssg7
(dp395
S'REST!@#32nd'
p396
F1
ssg62
(dp397
S'!@#Dotted@16th'
p398
F0.66666666666666663
sS'0.0!@#Eighth@tied@to@32nd@(0.63@total@QL)'
p399
F0.1111111111111111
sS'0.0!@#Dotted@16th'
p400
F0.1111111111111111
sg330
F0.1111111111111111
ssg210
(dp401
S'-1.0!@#Dotted@Eighth'
p402
F0.5
sS'REST!@#16th'
p403
F0.25
sS'-3.0!@#Dotted@Eighth'
p404
F0.25
ssg363
(dp405
S''
F0.086419753086419748
sS'2.0!@#16th'
p406
F0.049382716049382713
sS'REST!@#16th'
p407
F0.61728395061728392
sS'0.0!@#16th'
p408
F0.037037037037037035
sS'REST!@#Eighth'
p409
F0.19753086419753085
sS'0.0!@#Eighth'
p410
F0.012345679012345678
ssg111
(dp411
S'-7.0!@#Dotted@Eighth'
p412
F1
ssg314
(dp413
S''
F0.12
sS'-1.0!@#Eighth'
p414
F0.040000000000000001
sS'-2.0!@#Eighth'
p415
F0.040000000000000001
sS'REST!@#Eighth'
p416
F0.080000000000000002
sS'!@#Eighth'
p417
F0.16
sS'REST!@#16th'
p418
F0.28000000000000003
sS'-7.0!@#Eighth'
p419
F0.040000000000000001
sS'-5.0!@#Eighth'
p420
F0.12
sS'2.0!@#Eighth'
p421
F0.080000000000000002
sS'-3.0!@#Eighth'
p422
F0.040000000000000001
ssg267
(dp423
S'!@#Eighth'
p424
F1
ssS'3.0!@#Dotted@16th'
p425
(dp426
S'REST!@#Eighth@tied@to@32nd@(0.63@total@QL)'
p427
F0.33333333333333331
sS'REST!@#32nd'
p428
F0.66666666666666663
ssg297
(dp429
S'REST!@#32nd'
p430
F1
ssg360
(dp431
S''
F0.066666666666666666
sS'REST!@#Eighth'
p432
F0.13333333333333333
sS'REST!@#16th'
p433
F0.68333333333333335
sS'0.0!@#16th'
p434
F0.11666666666666667
ssg275
(dp435
S'!@#Eighth'
p436
F1
ssg24
(dp437
S'-7.0!@#Quarter'
p438
F1
ssg349
(dp439
S''
F0.055555555555555552
sS'!@#16th'
p440
F0.29629629629629628
sS'REST!@#Eighth'
p441
F0.25925925925925924
sS'REST!@#16th'
p442
F0.24074074074074073
sS'!@#Eighth'
p443
F0.14814814814814814
ssg390
(dp444
g425
F1
ssg44
(dp445
S'-1.0!@#Double@Dotted@Eighth'
p446
F0.5
sS'-4.0!@#Eighth'
p447
F0.5
ssg49
(dp448
S''
F0.5
sS'REST!@#32nd'
p449
F0.5
ssg290
(dp450
S''
F0.076923076923076927
sS'-4.0!@#Eighth'
p451
F0.038461538461538464
sS'-2.0!@#Eighth'
p452
F0.038461538461538464
sS'!@#Eighth'
p453
F0.076923076923076927
sS'REST!@#16th'
p454
F0.23076923076923078
sS'-7.0!@#Eighth'
p455
F0.038461538461538464
sS'0.0!@#Eighth'
p456
F0.19230769230769232
sS'-5.0!@#Eighth'
p457
F0.038461538461538464
sS'REST!@#Eighth'
p458
F0.23076923076923078
sS'REST!@#Quarter'
p459
F0.038461538461538464
ssg168
(dp460
S'-3.0!@#Quarter'
p461
F0.20000000000000001
sg22
F0.80000000000000004
ssg60
(dp462
S'REST!@#Eighth@tied@to@32nd@(0.63@total@QL)'
p463
F1
ssg404
(dp464
g107
F0.5
sS'-3.0!@#Dotted@Eighth'
p465
F0.5
ssg446
(dp466
S'REST!@#32nd'
p467
F1
ssg132
(dp468
S'REST!@#Half'
p469
F1
ssg149
(dp470
g153
F1
ssg50
(dp471
S'REST!@#Eighth@tied@to@32nd@(0.63@total@QL)'
p472
F0.19047619047619047
sS''
F0.047619047619047616
sS'REST!@#32nd'
p473
F0.76190476190476186
ssg469
(dp474
g365
F1
ssg229
(dp475
S'REST!@#Eighth'
p476
F1
ss.